; ModuleID = '55/285.c'
source_filename = "55/285.c"
target datalayout = "e-m:e-p270:32:32-p271:32:32-p272:64:64-i64:64-f80:128-n8:16:32:64-S128"
target triple = "x86_64-pc-linux-gnu"

@.str = private unnamed_addr constant [9 x i8] c"%d %s %d\00", align 1
@.str.1 = private unnamed_addr constant [3 x i8] c"%c\00", align 1
@.str.2 = private unnamed_addr constant [3 x i8] c"%d\00", align 1

; Function Attrs: noinline nounwind uwtable
define dso_local i32 @main() #0 {
  %1 = alloca i32, align 4
  %2 = alloca i32, align 4
  %3 = alloca i32, align 4
  %4 = alloca i32, align 4
  %5 = alloca i32, align 4
  %6 = alloca i32, align 4
  %7 = alloca [999 x i8], align 16
  store i32 0, i32* %1, align 4
  store i32 0, i32* %6, align 4
  %8 = getelementptr inbounds [999 x i8], [999 x i8]* %7, i64 0, i64 0
  %9 = call i32 (i8*, ...) @__isoc99_scanf(i8* getelementptr inbounds ([9 x i8], [9 x i8]* @.str, i64 0, i64 0), i32* %2, i8* %8, i32* %3)
  %10 = getelementptr inbounds [999 x i8], [999 x i8]* %7, i64 0, i64 0
  %11 = call i64 @strlen(i8* %10) #3
  %12 = trunc i64 %11 to i32
  store i32 %12, i32* %5, align 4
  store i32 0, i32* %4, align 4
  br label %13

13:                                               ; preds = %85, %0
  %14 = load i32, i32* %4, align 4
  %15 = load i32, i32* %5, align 4
  %16 = icmp slt i32 %14, %15
  br i1 %16, label %17, label %88

17:                                               ; preds = %13
  %18 = load i32, i32* %4, align 4
  %19 = sext i32 %18 to i64
  %20 = getelementptr inbounds [999 x i8], [999 x i8]* %7, i64 0, i64 %19
  %21 = load i8, i8* %20, align 1
  %22 = sext i8 %21 to i32
  %23 = icmp sge i32 %22, 97
  br i1 %23, label %24, label %39

24:                                               ; preds = %17
  %25 = load i32, i32* %4, align 4
  %26 = sext i32 %25 to i64
  %27 = getelementptr inbounds [999 x i8], [999 x i8]* %7, i64 0, i64 %26
  %28 = load i8, i8* %27, align 1
  %29 = sext i8 %28 to i32
  %30 = icmp sle i32 %29, 122
  br i1 %30, label %31, label %39

31:                                               ; preds = %24
  %32 = load i32, i32* %4, align 4
  %33 = sext i32 %32 to i64
  %34 = getelementptr inbounds [999 x i8], [999 x i8]* %7, i64 0, i64 %33
  %35 = load i8, i8* %34, align 1
  %36 = sext i8 %35 to i32
  %37 = sub nsw i32 %36, 87
  %38 = trunc i32 %37 to i8
  store i8 %38, i8* %34, align 1
  br label %62

39:                                               ; preds = %24, %17
  %40 = load i32, i32* %4, align 4
  %41 = sext i32 %40 to i64
  %42 = getelementptr inbounds [999 x i8], [999 x i8]* %7, i64 0, i64 %41
  %43 = load i8, i8* %42, align 1
  %44 = sext i8 %43 to i32
  %45 = icmp sge i32 %44, 65
  br i1 %45, label %46, label %61

46:                                               ; preds = %39
  %47 = load i32, i32* %4, align 4
  %48 = sext i32 %47 to i64
  %49 = getelementptr inbounds [999 x i8], [999 x i8]* %7, i64 0, i64 %48
  %50 = load i8, i8* %49, align 1
  %51 = sext i8 %50 to i32
  %52 = icmp sle i32 %51, 90
  br i1 %52, label %53, label %61

53:                                               ; preds = %46
  %54 = load i32, i32* %4, align 4
  %55 = sext i32 %54 to i64
  %56 = getelementptr inbounds [999 x i8], [999 x i8]* %7, i64 0, i64 %55
  %57 = load i8, i8* %56, align 1
  %58 = sext i8 %57 to i32
  %59 = sub nsw i32 %58, 55
  %60 = trunc i32 %59 to i8
  store i8 %60, i8* %56, align 1
  br label %61

61:                                               ; preds = %53, %46, %39
  br label %62

62:                                               ; preds = %61, %31
  %63 = load i32, i32* %4, align 4
  %64 = sext i32 %63 to i64
  %65 = getelementptr inbounds [999 x i8], [999 x i8]* %7, i64 0, i64 %64
  %66 = load i8, i8* %65, align 1
  %67 = sext i8 %66 to i32
  %68 = icmp sge i32 %67, 48
  br i1 %68, label %69, label %84

69:                                               ; preds = %62
  %70 = load i32, i32* %4, align 4
  %71 = sext i32 %70 to i64
  %72 = getelementptr inbounds [999 x i8], [999 x i8]* %7, i64 0, i64 %71
  %73 = load i8, i8* %72, align 1
  %74 = sext i8 %73 to i32
  %75 = icmp sle i32 %74, 57
  br i1 %75, label %76, label %84

76:                                               ; preds = %69
  %77 = load i32, i32* %4, align 4
  %78 = sext i32 %77 to i64
  %79 = getelementptr inbounds [999 x i8], [999 x i8]* %7, i64 0, i64 %78
  %80 = load i8, i8* %79, align 1
  %81 = sext i8 %80 to i32
  %82 = sub nsw i32 %81, 48
  %83 = trunc i32 %82 to i8
  store i8 %83, i8* %79, align 1
  br label %84

84:                                               ; preds = %76, %69, %62
  br label %85

85:                                               ; preds = %84
  %86 = load i32, i32* %4, align 4
  %87 = add nsw i32 %86, 1
  store i32 %87, i32* %4, align 4
  br label %13

88:                                               ; preds = %13
  store i32 0, i32* %4, align 4
  br label %89

89:                                               ; preds = %108, %88
  %90 = load i32, i32* %4, align 4
  %91 = load i32, i32* %5, align 4
  %92 = icmp slt i32 %90, %91
  br i1 %92, label %93, label %111

93:                                               ; preds = %89
  %94 = load i32, i32* %4, align 4
  %95 = sext i32 %94 to i64
  %96 = getelementptr inbounds [999 x i8], [999 x i8]* %7, i64 0, i64 %95
  %97 = load i8, i8* %96, align 1
  %98 = sext i8 %97 to i32
  %99 = load i32, i32* %2, align 4
  %100 = load i32, i32* %5, align 4
  %101 = load i32, i32* %4, align 4
  %102 = sub nsw i32 %100, %101
  %103 = sub nsw i32 %102, 1
  %104 = call i32 @f(i32 %99, i32 %103)
  %105 = mul nsw i32 %98, %104
  %106 = load i32, i32* %6, align 4
  %107 = add nsw i32 %106, %105
  store i32 %107, i32* %6, align 4
  br label %108

108:                                              ; preds = %93
  %109 = load i32, i32* %4, align 4
  %110 = add nsw i32 %109, 1
  store i32 %110, i32* %4, align 4
  br label %89

111:                                              ; preds = %89
  store i32 0, i32* %4, align 4
  br label %112

112:                                              ; preds = %148, %111
  %113 = load i32, i32* %6, align 4
  %114 = load i32, i32* %3, align 4
  %115 = srem i32 %113, %114
  %116 = trunc i32 %115 to i8
  %117 = load i32, i32* %4, align 4
  %118 = sext i32 %117 to i64
  %119 = getelementptr inbounds [999 x i8], [999 x i8]* %7, i64 0, i64 %118
  store i8 %116, i8* %119, align 1
  %120 = load i32, i32* %6, align 4
  %121 = load i32, i32* %4, align 4
  %122 = sext i32 %121 to i64
  %123 = getelementptr inbounds [999 x i8], [999 x i8]* %7, i64 0, i64 %122
  %124 = load i8, i8* %123, align 1
  %125 = sext i8 %124 to i32
  %126 = sub nsw i32 %120, %125
  %127 = load i32, i32* %3, align 4
  %128 = sdiv i32 %126, %127
  store i32 %128, i32* %6, align 4
  %129 = load i32, i32* %4, align 4
  %130 = sext i32 %129 to i64
  %131 = getelementptr inbounds [999 x i8], [999 x i8]* %7, i64 0, i64 %130
  %132 = load i8, i8* %131, align 1
  %133 = sext i8 %132 to i32
  %134 = icmp sgt i32 %133, 9
  br i1 %134, label %135, label %143

135:                                              ; preds = %112
  %136 = load i32, i32* %4, align 4
  %137 = sext i32 %136 to i64
  %138 = getelementptr inbounds [999 x i8], [999 x i8]* %7, i64 0, i64 %137
  %139 = load i8, i8* %138, align 1
  %140 = sext i8 %139 to i32
  %141 = add nsw i32 %140, 55
  %142 = trunc i32 %141 to i8
  store i8 %142, i8* %138, align 1
  br label %143

143:                                              ; preds = %135, %112
  %144 = load i32, i32* %6, align 4
  %145 = icmp eq i32 %144, 0
  br i1 %145, label %146, label %147

146:                                              ; preds = %143
  br label %151

147:                                              ; preds = %143
  br label %148

148:                                              ; preds = %147
  %149 = load i32, i32* %4, align 4
  %150 = add nsw i32 %149, 1
  store i32 %150, i32* %4, align 4
  br label %112

151:                                              ; preds = %146
  %152 = load i32, i32* %4, align 4
  store i32 %152, i32* %4, align 4
  br label %153

153:                                              ; preds = %178, %151
  %154 = load i32, i32* %4, align 4
  %155 = icmp sge i32 %154, 0
  br i1 %155, label %156, label %181

156:                                              ; preds = %153
  %157 = load i32, i32* %4, align 4
  %158 = sext i32 %157 to i64
  %159 = getelementptr inbounds [999 x i8], [999 x i8]* %7, i64 0, i64 %158
  %160 = load i8, i8* %159, align 1
  %161 = sext i8 %160 to i32
  %162 = icmp sgt i32 %161, 9
  br i1 %162, label %163, label %170

163:                                              ; preds = %156
  %164 = load i32, i32* %4, align 4
  %165 = sext i32 %164 to i64
  %166 = getelementptr inbounds [999 x i8], [999 x i8]* %7, i64 0, i64 %165
  %167 = load i8, i8* %166, align 1
  %168 = sext i8 %167 to i32
  %169 = call i32 (i8*, ...) @printf(i8* getelementptr inbounds ([3 x i8], [3 x i8]* @.str.1, i64 0, i64 0), i32 %168)
  br label %177

170:                                              ; preds = %156
  %171 = load i32, i32* %4, align 4
  %172 = sext i32 %171 to i64
  %173 = getelementptr inbounds [999 x i8], [999 x i8]* %7, i64 0, i64 %172
  %174 = load i8, i8* %173, align 1
  %175 = sext i8 %174 to i32
  %176 = call i32 (i8*, ...) @printf(i8* getelementptr inbounds ([3 x i8], [3 x i8]* @.str.2, i64 0, i64 0), i32 %175)
  br label %177

177:                                              ; preds = %170, %163
  br label %178

178:                                              ; preds = %177
  %179 = load i32, i32* %4, align 4
  %180 = add nsw i32 %179, -1
  store i32 %180, i32* %4, align 4
  br label %153

181:                                              ; preds = %153
  %182 = load i32, i32* %1, align 4
  ret i32 %182
}

declare dso_local i32 @__isoc99_scanf(i8*, ...) #1

; Function Attrs: nounwind readonly
declare dso_local i64 @strlen(i8*) #2

; Function Attrs: noinline nounwind uwtable
define dso_local i32 @f(i32 %0, i32 %1) #0 {
  %3 = alloca i32, align 4
  %4 = alloca i32, align 4
  %5 = alloca i32, align 4
  %6 = alloca i32, align 4
  store i32 %0, i32* %3, align 4
  store i32 %1, i32* %4, align 4
  store i32 1, i32* %6, align 4
  store i32 0, i32* %5, align 4
  br label %7

7:                                                ; preds = %15, %2
  %8 = load i32, i32* %5, align 4
  %9 = load i32, i32* %4, align 4
  %10 = icmp slt i32 %8, %9
  br i1 %10, label %11, label %18

11:                                               ; preds = %7
  %12 = load i32, i32* %3, align 4
  %13 = load i32, i32* %6, align 4
  %14 = mul nsw i32 %13, %12
  store i32 %14, i32* %6, align 4
  br label %15

15:                                               ; preds = %11
  %16 = load i32, i32* %5, align 4
  %17 = add nsw i32 %16, 1
  store i32 %17, i32* %5, align 4
  br label %7

18:                                               ; preds = %7
  %19 = load i32, i32* %6, align 4
  ret i32 %19
}

declare dso_local i32 @printf(i8*, ...) #1


!llvm.module.flags = !{!0}
!llvm.ident = !{!1}

!0 = !{i32 1, !"wchar_size", i32 4}
!1 = !{!"clang version 10.0.0-4ubuntu1 "}
